target datalayout = "e-m:e-p270:32:32-p271:32:32-p272:64:64-i64:64-i128:128-f80:128-n8:16:32:64-S128"
target triple = "x86_64-pc-linux-gnu"

%struct.lean_object = type { i32, i32 }
%struct.lean_ctor_object = type { %struct.lean_object, [0 x ptr] }

@l_Lean_Parser_Tactic_bvNormalizeMacro___closed__2 = internal global ptr null, align 8
@l_Lean_Parser_Tactic___aux__Init__Tactics______macroRules__Lean__Parser__Tactic__bvNormalizeMacro__1___closed__1 = internal global ptr null, align 8

; Function Attrs: inlinehint nounwind uwtable
define internal ptr @lean_to_ctor(ptr noundef %0) #0 {
  %2 = alloca ptr, align 8
  store ptr %0, ptr %2, align 8, !tbaa !4
  %3 = load ptr, ptr %2, align 8, !tbaa !4
  ret ptr %3
}

; Function Attrs: inlinehint nounwind uwtable
define internal ptr @lean_alloc_small_object(i32 noundef %0) #0 {
  %2 = alloca i32, align 4
  %3 = alloca ptr, align 8
  %4 = alloca ptr, align 8
  store i32 %0, ptr %2, align 4, !tbaa !11
  call void @lean_inc_heartbeat()
  %5 = load i32, ptr %2, align 4, !tbaa !11
  %6 = zext i32 %5 to i64
  %7 = call i64 @lean_align(i64 noundef %6, i64 noundef 8)
  %8 = trunc i64 %7 to i32
  store i32 %8, ptr %2, align 4, !tbaa !11
  call void @llvm.lifetime.start.p0(i64 8, ptr %3) #8
  %9 = load i32, ptr %2, align 4, !tbaa !11
  %10 = zext i32 %9 to i64
  %11 = call noalias ptr @mi_malloc_small(i64 noundef %10)
  store ptr %11, ptr %3, align 8, !tbaa !4
  %12 = load ptr, ptr %3, align 8, !tbaa !4
  %13 = icmp eq ptr %12, null
  br i1 %13, label %14, label %15

14:                                               ; preds = %1
  call void @lean_internal_panic_out_of_memory() #7
  unreachable

15:                                               ; preds = %1
  call void @llvm.lifetime.start.p0(i64 8, ptr %4) #8
  %16 = load ptr, ptr %3, align 8, !tbaa !4
  store ptr %16, ptr %4, align 8, !tbaa !4
  %17 = load i32, ptr %2, align 4, !tbaa !11
  %18 = load ptr, ptr %4, align 8, !tbaa !4
  %19 = getelementptr inbounds nuw %struct.lean_object, ptr %18, i32 0, i32 1
  %20 = load i32, ptr %19, align 4
  %21 = and i32 %17, 65535
  %22 = and i32 %20, -65536
  %23 = or i32 %22, %21
  store i32 %23, ptr %19, align 4
  %24 = load ptr, ptr %4, align 8, !tbaa !4
  call void @llvm.lifetime.end.p0(i64 8, ptr %4) #8
  call void @llvm.lifetime.end.p0(i64 8, ptr %3) #8
  ret ptr %24
}

; Function Attrs: inlinehint nounwind uwtable
define internal i64 @lean_align(i64 noundef %0, i64 noundef %1) #0 {
  %3 = alloca i64, align 8
  %4 = alloca i64, align 8
  store i64 %0, ptr %3, align 8, !tbaa !9
  store i64 %1, ptr %4, align 8, !tbaa !9
  %5 = load i64, ptr %3, align 8, !tbaa !9
  %6 = load i64, ptr %4, align 8, !tbaa !9
  %7 = udiv i64 %5, %6
  %8 = load i64, ptr %4, align 8, !tbaa !9
  %9 = mul i64 %7, %8
  %10 = load i64, ptr %4, align 8, !tbaa !9
  %11 = load i64, ptr %3, align 8, !tbaa !9
  %12 = load i64, ptr %4, align 8, !tbaa !9
  %13 = urem i64 %11, %12
  %14 = icmp ne i64 %13, 0
  %15 = zext i1 %14 to i32
  %16 = sext i32 %15 to i64
  %17 = mul i64 %10, %16
  %18 = add i64 %9, %17
  ret i64 %18
}

; Function Attrs: alwaysinline nounwind uwtable
define internal void @lean_dec_ref(ptr noundef %0) #4 {
  %2 = alloca ptr, align 8
  store ptr %0, ptr %2, align 8, !tbaa !4
  %3 = load ptr, ptr %2, align 8, !tbaa !4
  %4 = getelementptr inbounds nuw %struct.lean_object, ptr %3, i32 0, i32 0
  %5 = load i32, ptr %4, align 4, !tbaa !13
  %6 = icmp sgt i32 %5, 1
  %7 = zext i1 %6 to i32
  %8 = sext i32 %7 to i64
  %9 = call i64 @llvm.expect.i64(i64 %8, i64 1)
  %10 = icmp ne i64 %9, 0
  br i1 %10, label %11, label %16

11:                                               ; preds = %1
  %12 = load ptr, ptr %2, align 8, !tbaa !4
  %13 = getelementptr inbounds nuw %struct.lean_object, ptr %12, i32 0, i32 0
  %14 = load i32, ptr %13, align 4, !tbaa !13
  %15 = add i32 %14, -1
  store i32 %15, ptr %13, align 4, !tbaa !13
  br label %24

16:                                               ; preds = %1
  %17 = load ptr, ptr %2, align 8, !tbaa !4
  %18 = getelementptr inbounds nuw %struct.lean_object, ptr %17, i32 0, i32 0
  %19 = load i32, ptr %18, align 4, !tbaa !13
  %20 = icmp ne i32 %19, 0
  br i1 %20, label %21, label %23

21:                                               ; preds = %16
  %22 = load ptr, ptr %2, align 8, !tbaa !4
  call void @lean_dec_ref_cold(ptr noundef %22)
  br label %23

23:                                               ; preds = %21, %16
  br label %24

24:                                               ; preds = %23, %11
  ret void
}

; Function Attrs: inlinehint nounwind uwtable
define internal void @lean_inc_ref(ptr noundef %0) #0 {
  %2 = alloca ptr, align 8
  store ptr %0, ptr %2, align 8, !tbaa !4
  %3 = load ptr, ptr %2, align 8, !tbaa !4
  %4 = call zeroext i1 @lean_is_st(ptr noundef %3)
  %5 = zext i1 %4 to i64
  %6 = call i64 @llvm.expect.i64(i64 %5, i64 1)
  %7 = icmp ne i64 %6, 0
  br i1 %7, label %8, label %13

8:                                                ; preds = %1
  %9 = load ptr, ptr %2, align 8, !tbaa !4
  %10 = getelementptr inbounds nuw %struct.lean_object, ptr %9, i32 0, i32 0
  %11 = load i32, ptr %10, align 4, !tbaa !13
  %12 = add i32 %11, 1
  store i32 %12, ptr %10, align 4, !tbaa !13
  br label %21

13:                                               ; preds = %1
  %14 = load ptr, ptr %2, align 8, !tbaa !4
  %15 = getelementptr inbounds nuw %struct.lean_object, ptr %14, i32 0, i32 0
  %16 = load i32, ptr %15, align 4, !tbaa !13
  %17 = icmp ne i32 %16, 0
  br i1 %17, label %18, label %20

18:                                               ; preds = %13
  %19 = load ptr, ptr %2, align 8, !tbaa !4
  call void @lean_inc_ref_cold(ptr noundef %19)
  br label %20

20:                                               ; preds = %18, %13
  br label %21

21:                                               ; preds = %20, %8
  ret void
}

; Function Attrs: alwaysinline nounwind uwtable
define internal zeroext i1 @lean_is_scalar(ptr noundef %0) #4 {
  %2 = alloca ptr, align 8
  store ptr %0, ptr %2, align 8, !tbaa !4
  %3 = load ptr, ptr %2, align 8, !tbaa !4
  %4 = ptrtoint ptr %3 to i64
  %5 = and i64 %4, 1
  %6 = icmp eq i64 %5, 1
  ret i1 %6
}

; Function Attrs: inlinehint nounwind uwtable
define internal zeroext i1 @lean_is_st(ptr noundef %0) #0 {
  %2 = alloca ptr, align 8
  store ptr %0, ptr %2, align 8, !tbaa !4
  %3 = load ptr, ptr %2, align 8, !tbaa !4
  %4 = getelementptr inbounds nuw %struct.lean_object, ptr %3, i32 0, i32 0
  %5 = load i32, ptr %4, align 4, !tbaa !13
  %6 = icmp sgt i32 %5, 0
  ret i1 %6
}

; Function Attrs: inlinehint nounwind uwtable
define internal ptr @lean_ctor_obj_cptr(ptr noundef %0) #0 {
  %2 = alloca ptr, align 8
  store ptr %0, ptr %2, align 8, !tbaa !4
  %3 = load ptr, ptr %2, align 8, !tbaa !4
  %4 = call ptr @lean_to_ctor(ptr noundef %3)
  %5 = getelementptr inbounds nuw %struct.lean_ctor_object, ptr %4, i32 0, i32 1
  %6 = getelementptr inbounds [0 x ptr], ptr %5, i64 0, i64 0
  ret ptr %6
}

; Function Attrs: inlinehint nounwind uwtable
define internal void @lean_set_st_header(ptr noundef %0, i32 noundef %1, i32 noundef %2) #0 {
  %4 = alloca ptr, align 8
  %5 = alloca i32, align 4
  %6 = alloca i32, align 4
  store ptr %0, ptr %4, align 8, !tbaa !4
  store i32 %1, ptr %5, align 4, !tbaa !11
  store i32 %2, ptr %6, align 4, !tbaa !11
  %7 = load ptr, ptr %4, align 8, !tbaa !4
  %8 = getelementptr inbounds nuw %struct.lean_object, ptr %7, i32 0, i32 0
  store i32 1, ptr %8, align 4, !tbaa !13
  %9 = load i32, ptr %5, align 4, !tbaa !11
  %10 = load ptr, ptr %4, align 8, !tbaa !4
  %11 = getelementptr inbounds nuw %struct.lean_object, ptr %10, i32 0, i32 1
  %12 = load i32, ptr %11, align 4
  %13 = and i32 %9, 255
  %14 = shl i32 %13, 24
  %15 = and i32 %12, 16777215
  %16 = or i32 %15, %14
  store i32 %16, ptr %11, align 4
  %17 = load i32, ptr %6, align 4, !tbaa !11
  %18 = load ptr, ptr %4, align 8, !tbaa !4
  %19 = getelementptr inbounds nuw %struct.lean_object, ptr %18, i32 0, i32 1
  %20 = load i32, ptr %19, align 4
  %21 = and i32 %17, 255
  %22 = shl i32 %21, 16
  %23 = and i32 %20, -16711681
  %24 = or i32 %23, %22
  store i32 %24, ptr %19, align 4
  ret void
}

; Function Attrs: inlinehint nounwind uwtable
define internal ptr @lean_alloc_ctor_memory(i32 noundef %0) #0 {
  %2 = alloca i32, align 4
  %3 = alloca i32, align 4
  %4 = alloca ptr, align 8
  %5 = alloca ptr, align 8
  store i32 %0, ptr %2, align 4, !tbaa !11
  call void @llvm.lifetime.start.p0(i64 4, ptr %3) #8
  %6 = load i32, ptr %2, align 4, !tbaa !11
  %7 = zext i32 %6 to i64
  %8 = call i64 @lean_align(i64 noundef %7, i64 noundef 8)
  %9 = trunc i64 %8 to i32
  store i32 %9, ptr %3, align 4, !tbaa !11
  call void @llvm.lifetime.start.p0(i64 8, ptr %4) #8
  %10 = load i32, ptr %2, align 4, !tbaa !11
  %11 = call ptr @lean_alloc_small_object(i32 noundef %10)
  store ptr %11, ptr %4, align 8, !tbaa !4
  %12 = load i32, ptr %3, align 4, !tbaa !11
  %13 = load i32, ptr %2, align 4, !tbaa !11
  %14 = icmp ugt i32 %12, %13
  br i1 %14, label %15, label %22

15:                                               ; preds = %1
  call void @llvm.lifetime.start.p0(i64 8, ptr %5) #8
  %16 = load ptr, ptr %4, align 8, !tbaa !4
  %17 = load i32, ptr %3, align 4, !tbaa !11
  %18 = zext i32 %17 to i64
  %19 = getelementptr inbounds nuw i8, ptr %16, i64 %18
  store ptr %19, ptr %5, align 8, !tbaa !19
  %20 = load ptr, ptr %5, align 8, !tbaa !19
  %21 = getelementptr inbounds i64, ptr %20, i64 -1
  store i64 0, ptr %21, align 8, !tbaa !9
  call void @llvm.lifetime.end.p0(i64 8, ptr %5) #8
  br label %22

22:                                               ; preds = %15, %1
  %23 = load ptr, ptr %4, align 8, !tbaa !4
  call void @llvm.lifetime.end.p0(i64 8, ptr %4) #8
  call void @llvm.lifetime.end.p0(i64 4, ptr %3) #8
  ret ptr %23
}

; Function Attrs: alwaysinline nounwind uwtable
define internal void @lean_dec(ptr noundef %0) #4 {
  %2 = alloca ptr, align 8
  store ptr %0, ptr %2, align 8, !tbaa !4
  %3 = load ptr, ptr %2, align 8, !tbaa !4
  %4 = call zeroext i1 @lean_is_scalar(ptr noundef %3)
  br i1 %4, label %7, label %5

5:                                                ; preds = %1
  %6 = load ptr, ptr %2, align 8, !tbaa !4
  call void @lean_dec_ref(ptr noundef %6)
  br label %7

7:                                                ; preds = %5, %1
  ret void
}

; Function Attrs: alwaysinline nounwind uwtable
define internal void @lean_inc(ptr noundef %0) #4 {
  %2 = alloca ptr, align 8
  store ptr %0, ptr %2, align 8, !tbaa !4
  %3 = load ptr, ptr %2, align 8, !tbaa !4
  %4 = call zeroext i1 @lean_is_scalar(ptr noundef %3)
  br i1 %4, label %7, label %5

5:                                                ; preds = %1
  %6 = load ptr, ptr %2, align 8, !tbaa !4
  call void @lean_inc_ref(ptr noundef %6)
  br label %7

7:                                                ; preds = %5, %1
  ret void
}

; Function Attrs: inlinehint nounwind uwtable
define internal ptr @lean_ctor_get(ptr noundef %0, i32 noundef %1) #0 {
  %3 = alloca ptr, align 8
  %4 = alloca i32, align 4
  store ptr %0, ptr %3, align 8, !tbaa !4
  store i32 %1, ptr %4, align 4, !tbaa !11
  %5 = load ptr, ptr %3, align 8, !tbaa !4
  %6 = call ptr @lean_ctor_obj_cptr(ptr noundef %5)
  %7 = load i32, ptr %4, align 4, !tbaa !11
  %8 = zext i32 %7 to i64
  %9 = getelementptr inbounds nuw ptr, ptr %6, i64 %8
  %10 = load ptr, ptr %9, align 8, !tbaa !4
  ret ptr %10
}

; Function Attrs: inlinehint nounwind uwtable
define internal zeroext i1 @lean_is_exclusive(ptr noundef %0) #0 {
  %2 = alloca i1, align 1
  %3 = alloca ptr, align 8
  store ptr %0, ptr %3, align 8, !tbaa !4
  %4 = load ptr, ptr %3, align 8, !tbaa !4
  %5 = call zeroext i1 @lean_is_st(ptr noundef %4)
  %6 = zext i1 %5 to i64
  %7 = call i64 @llvm.expect.i64(i64 %6, i64 1)
  %8 = icmp ne i64 %7, 0
  br i1 %8, label %9, label %14

9:                                                ; preds = %1
  %10 = load ptr, ptr %3, align 8, !tbaa !4
  %11 = getelementptr inbounds nuw %struct.lean_object, ptr %10, i32 0, i32 0
  %12 = load i32, ptr %11, align 4, !tbaa !13
  %13 = icmp eq i32 %12, 1
  store i1 %13, ptr %2, align 1
  br label %15

14:                                               ; preds = %1
  store i1 false, ptr %2, align 1
  br label %15

15:                                               ; preds = %14, %9
  %16 = load i1, ptr %2, align 1
  ret i1 %16
}

; Function Attrs: inlinehint nounwind uwtable
define internal void @lean_ctor_set(ptr noundef %0, i32 noundef %1, ptr noundef %2) #0 {
  %4 = alloca ptr, align 8
  %5 = alloca i32, align 4
  %6 = alloca ptr, align 8
  store ptr %0, ptr %4, align 8, !tbaa !4
  store i32 %1, ptr %5, align 4, !tbaa !11
  store ptr %2, ptr %6, align 8, !tbaa !4
  %7 = load ptr, ptr %6, align 8, !tbaa !4
  %8 = load ptr, ptr %4, align 8, !tbaa !4
  %9 = call ptr @lean_ctor_obj_cptr(ptr noundef %8)
  %10 = load i32, ptr %5, align 4, !tbaa !11
  %11 = zext i32 %10 to i64
  %12 = getelementptr inbounds nuw ptr, ptr %9, i64 %11
  store ptr %7, ptr %12, align 8, !tbaa !4
  ret void
}

; Function Attrs: inlinehint nounwind uwtable
define internal ptr @lean_alloc_ctor(i32 noundef %0, i32 noundef %1, i32 noundef %2) #0 {
  %4 = alloca i32, align 4
  %5 = alloca i32, align 4
  %6 = alloca i32, align 4
  %7 = alloca ptr, align 8
  store i32 %0, ptr %4, align 4, !tbaa !11
  store i32 %1, ptr %5, align 4, !tbaa !11
  store i32 %2, ptr %6, align 4, !tbaa !11
  call void @llvm.lifetime.start.p0(i64 8, ptr %7) #8
  %8 = load i32, ptr %5, align 4, !tbaa !11
  %9 = zext i32 %8 to i64
  %10 = mul i64 8, %9
  %11 = add i64 8, %10
  %12 = load i32, ptr %6, align 4, !tbaa !11
  %13 = zext i32 %12 to i64
  %14 = add i64 %11, %13
  %15 = trunc i64 %14 to i32
  %16 = call ptr @lean_alloc_ctor_memory(i32 noundef %15)
  store ptr %16, ptr %7, align 8, !tbaa !4
  %17 = load ptr, ptr %7, align 8, !tbaa !4
  %18 = load i32, ptr %4, align 4, !tbaa !11
  %19 = load i32, ptr %5, align 4, !tbaa !11
  call void @lean_set_st_header(ptr noundef %17, i32 noundef %18, i32 noundef %19)
  %20 = load ptr, ptr %7, align 8, !tbaa !4
  call void @llvm.lifetime.end.p0(i64 8, ptr %7) #8
  ret ptr %20
}

; Function Attrs: inlinehint nounwind uwtable
define internal ptr @lean_box(i64 noundef %0) #0 {
  %2 = alloca i64, align 8
  store i64 %0, ptr %2, align 8, !tbaa !9
  %3 = load i64, ptr %2, align 8, !tbaa !9
  %4 = shl i64 %3, 1
  %5 = or i64 %4, 1
  %6 = inttoptr i64 %5 to ptr
  ret ptr %6
}

; Function Attrs: nounwind uwtable
define ptr @l_Lean_Parser_Tactic___aux__Init__Tactics______macroRules__Lean__Parser__Tactic__bvNormalizeMacro__1(ptr noundef %0, ptr noundef %1, ptr noundef %2) #1 {
  %4 = alloca ptr, align 8
  %5 = alloca ptr, align 8
  %6 = alloca ptr, align 8
  %7 = alloca ptr, align 8
  %8 = alloca ptr, align 8
  %9 = alloca i8, align 1
  %10 = alloca ptr, align 8
  %11 = alloca ptr, align 8
  %12 = alloca i32, align 4
  %13 = alloca ptr, align 8
  %14 = alloca ptr, align 8
  %15 = alloca i8, align 1
  %16 = alloca ptr, align 8
  %17 = alloca ptr, align 8
  %18 = alloca ptr, align 8
  store ptr %0, ptr %5, align 8, !tbaa !4
  store ptr %1, ptr %6, align 8, !tbaa !4
  store ptr %2, ptr %7, align 8, !tbaa !4
  br label %19

19:                                               ; preds = %3
  call void @llvm.lifetime.start.p0(i64 8, ptr %8) #8
  call void @llvm.lifetime.start.p0(i64 1, ptr %9) #8
  %20 = load ptr, ptr @l_Lean_Parser_Tactic_bvNormalizeMacro___closed__2, align 8, !tbaa !4
  store ptr %20, ptr %8, align 8, !tbaa !4
  %21 = load ptr, ptr %5, align 8, !tbaa !4
  %22 = load ptr, ptr %8, align 8, !tbaa !4
  %23 = call zeroext i8 @l_Lean_Syntax_isOfKind(ptr noundef %21, ptr noundef %22)
  store i8 %23, ptr %9, align 1, !tbaa !8
  %24 = load i8, ptr %9, align 1, !tbaa !8
  %25 = zext i8 %24 to i32
  %26 = icmp eq i32 %25, 0
  br i1 %26, label %27, label %35

27:                                               ; preds = %19
  call void @llvm.lifetime.start.p0(i64 8, ptr %10) #8
  call void @llvm.lifetime.start.p0(i64 8, ptr %11) #8
  %28 = call ptr @lean_box(i64 noundef 1)
  store ptr %28, ptr %10, align 8, !tbaa !4
  %29 = call ptr @lean_alloc_ctor(i32 noundef 1, i32 noundef 2, i32 noundef 0)
  store ptr %29, ptr %11, align 8, !tbaa !4
  %30 = load ptr, ptr %11, align 8, !tbaa !4
  %31 = load ptr, ptr %10, align 8, !tbaa !4
  call void @lean_ctor_set(ptr noundef %30, i32 noundef 0, ptr noundef %31)
  %32 = load ptr, ptr %11, align 8, !tbaa !4
  %33 = load ptr, ptr %7, align 8, !tbaa !4
  call void @lean_ctor_set(ptr noundef %32, i32 noundef 1, ptr noundef %33)
  %34 = load ptr, ptr %11, align 8, !tbaa !4
  store ptr %34, ptr %4, align 8
  store i32 1, ptr %12, align 4
  call void @llvm.lifetime.end.p0(i64 8, ptr %11) #8
  call void @llvm.lifetime.end.p0(i64 8, ptr %10) #8
  br label %66

35:                                               ; preds = %19
  call void @llvm.lifetime.start.p0(i64 8, ptr %13) #8
  call void @llvm.lifetime.start.p0(i64 8, ptr %14) #8
  call void @llvm.lifetime.start.p0(i64 1, ptr %15) #8
  %36 = load ptr, ptr @l_Lean_Parser_Tactic___aux__Init__Tactics______macroRules__Lean__Parser__Tactic__bvNormalizeMacro__1___closed__1, align 8, !tbaa !4
  store ptr %36, ptr %13, align 8, !tbaa !4
  %37 = load ptr, ptr %13, align 8, !tbaa !4
  %38 = load ptr, ptr %6, align 8, !tbaa !4
  %39 = load ptr, ptr %7, align 8, !tbaa !4
  %40 = call ptr @l_Lean_Macro_throwError___rarg(ptr noundef %37, ptr noundef %38, ptr noundef %39)
  store ptr %40, ptr %14, align 8, !tbaa !4
  %41 = load ptr, ptr %14, align 8, !tbaa !4
  %42 = call zeroext i1 @lean_is_exclusive(ptr noundef %41)
  %43 = xor i1 %42, true
  %44 = zext i1 %43 to i32
  %45 = trunc i32 %44 to i8
  store i8 %45, ptr %15, align 1, !tbaa !8
  %46 = load i8, ptr %15, align 1, !tbaa !8
  %47 = zext i8 %46 to i32
  %48 = icmp eq i32 %47, 0
  br i1 %48, label %49, label %51

49:                                               ; preds = %35
  %50 = load ptr, ptr %14, align 8, !tbaa !4
  store ptr %50, ptr %4, align 8
  store i32 1, ptr %12, align 4
  br label %65

51:                                               ; preds = %35
  call void @llvm.lifetime.start.p0(i64 8, ptr %16) #8
  call void @llvm.lifetime.start.p0(i64 8, ptr %17) #8
  call void @llvm.lifetime.start.p0(i64 8, ptr %18) #8
  %52 = load ptr, ptr %14, align 8, !tbaa !4
  %53 = call ptr @lean_ctor_get(ptr noundef %52, i32 noundef 0)
  store ptr %53, ptr %16, align 8, !tbaa !4
  %54 = load ptr, ptr %14, align 8, !tbaa !4
  %55 = call ptr @lean_ctor_get(ptr noundef %54, i32 noundef 1)
  store ptr %55, ptr %17, align 8, !tbaa !4
  %56 = load ptr, ptr %17, align 8, !tbaa !4
  call void @lean_inc(ptr noundef %56)
  %57 = load ptr, ptr %16, align 8, !tbaa !4
  call void @lean_inc(ptr noundef %57)
  %58 = load ptr, ptr %14, align 8, !tbaa !4
  call void @lean_dec(ptr noundef %58)
  %59 = call ptr @lean_alloc_ctor(i32 noundef 1, i32 noundef 2, i32 noundef 0)
  store ptr %59, ptr %18, align 8, !tbaa !4
  %60 = load ptr, ptr %18, align 8, !tbaa !4
  %61 = load ptr, ptr %16, align 8, !tbaa !4
  call void @lean_ctor_set(ptr noundef %60, i32 noundef 0, ptr noundef %61)
  %62 = load ptr, ptr %18, align 8, !tbaa !4
  %63 = load ptr, ptr %17, align 8, !tbaa !4
  call void @lean_ctor_set(ptr noundef %62, i32 noundef 1, ptr noundef %63)
  %64 = load ptr, ptr %18, align 8, !tbaa !4
  store ptr %64, ptr %4, align 8
  store i32 1, ptr %12, align 4
  call void @llvm.lifetime.end.p0(i64 8, ptr %18) #8
  call void @llvm.lifetime.end.p0(i64 8, ptr %17) #8
  call void @llvm.lifetime.end.p0(i64 8, ptr %16) #8
  br label %65

65:                                               ; preds = %51, %49
  call void @llvm.lifetime.end.p0(i64 1, ptr %15) #8
  call void @llvm.lifetime.end.p0(i64 8, ptr %14) #8
  call void @llvm.lifetime.end.p0(i64 8, ptr %13) #8
  br label %66

66:                                               ; preds = %65, %27
  call void @llvm.lifetime.end.p0(i64 1, ptr %9) #8
  call void @llvm.lifetime.end.p0(i64 8, ptr %8) #8
  %67 = load ptr, ptr %4, align 8
  ret ptr %67
}